target datalayout = "e-m:e-p270:32:32-p271:32:32-p272:64:64-i64:64-i128:128-f80:128-n8:16:32:64-S128"
target triple = "x86_64-pc-linux-gnu"

%union.pthread_mutex_t = type { %struct.__pthread_mutex_s }
%struct.__pthread_mutex_s = type { i32, i32, i32, i32, i32, i16, i16, %struct.__pthread_internal_list }
%struct.__pthread_internal_list = type { ptr, ptr }
%struct.free_block = type { %struct.block_header, ptr, ptr, i64 }
%struct.block_header = type { i64, i64 }

@allocator_lock = internal global %union.pthread_mutex_t zeroinitializer, align 8
@free_blocks = internal global ptr null, align 8
@allocated_size = internal global i64 0, align 8
@total_size = internal global i64 0, align 8

; Function Attrs: nounwind uwtable
define internal void @sljit_insert_free_block(ptr noundef %0, i64 noundef %1) #0 {
  %3 = alloca ptr, align 8
  %4 = alloca i64, align 8
  store ptr %0, ptr %3, align 8
  store i64 %1, ptr %4, align 8
  %5 = load ptr, ptr %3, align 8
  %6 = getelementptr inbounds %struct.free_block, ptr %5, i32 0, i32 0
  %7 = getelementptr inbounds %struct.block_header, ptr %6, i32 0, i32 0
  store i64 0, ptr %7, align 8
  %8 = load i64, ptr %4, align 8
  %9 = load ptr, ptr %3, align 8
  %10 = getelementptr inbounds %struct.free_block, ptr %9, i32 0, i32 3
  store i64 %8, ptr %10, align 8
  %11 = load ptr, ptr @free_blocks, align 8
  %12 = load ptr, ptr %3, align 8
  %13 = getelementptr inbounds %struct.free_block, ptr %12, i32 0, i32 1
  store ptr %11, ptr %13, align 8
  %14 = load ptr, ptr %3, align 8
  %15 = getelementptr inbounds %struct.free_block, ptr %14, i32 0, i32 2
  store ptr null, ptr %15, align 8
  %16 = load ptr, ptr @free_blocks, align 8
  %17 = icmp ne ptr %16, null
  br i1 %17, label %18, label %22

18:                                               ; preds = %2
  %19 = load ptr, ptr %3, align 8
  %20 = load ptr, ptr @free_blocks, align 8
  %21 = getelementptr inbounds %struct.free_block, ptr %20, i32 0, i32 2
  store ptr %19, ptr %21, align 8
  br label %22

22:                                               ; preds = %18, %2
  %23 = load ptr, ptr %3, align 8
  store ptr %23, ptr @free_blocks, align 8
  ret void
}

; Function Attrs: nounwind uwtable
define internal ptr @alloc_chunk(i64 noundef %0) #0 {
  %2 = alloca ptr, align 8
  %3 = alloca i64, align 8
  %4 = alloca ptr, align 8
  %5 = alloca i32, align 4
  %6 = alloca i32, align 4
  %7 = alloca i32, align 4
  store i64 %0, ptr %3, align 8
  store i32 7, ptr %5, align 4
  store i32 2, ptr %6, align 4
  store i32 -1, ptr %7, align 4
  %8 = load i32, ptr %6, align 4
  %9 = or i32 %8, 32
  store i32 %9, ptr %6, align 4
  %10 = load i64, ptr %3, align 8
  %11 = load i32, ptr %5, align 4
  %12 = load i32, ptr %6, align 4
  %13 = load i32, ptr %7, align 4
  %14 = call ptr @mmap(ptr noundef null, i64 noundef %10, i32 noundef %11, i32 noundef %12, i32 noundef %13, i64 noundef 0) #6
  store ptr %14, ptr %4, align 8
  %15 = load ptr, ptr %4, align 8
  %16 = icmp eq ptr %15, inttoptr (i64 -1 to ptr)
  br i1 %16, label %17, label %18

17:                                               ; preds = %1
  store ptr null, ptr %2, align 8
  br label %20

18:                                               ; preds = %1
  %19 = load ptr, ptr %4, align 8
  store ptr %19, ptr %2, align 8
  br label %20

20:                                               ; preds = %18, %17
  %21 = load ptr, ptr %2, align 8
  ret ptr %21
}

; Function Attrs: nounwind uwtable
define internal void @sljit_remove_free_block(ptr noundef %0) #0 {
  %2 = alloca ptr, align 8
  store ptr %0, ptr %2, align 8
  %3 = load ptr, ptr %2, align 8
  %4 = getelementptr inbounds %struct.free_block, ptr %3, i32 0, i32 1
  %5 = load ptr, ptr %4, align 8
  %6 = icmp ne ptr %5, null
  br i1 %6, label %7, label %15

7:                                                ; preds = %1
  %8 = load ptr, ptr %2, align 8
  %9 = getelementptr inbounds %struct.free_block, ptr %8, i32 0, i32 2
  %10 = load ptr, ptr %9, align 8
  %11 = load ptr, ptr %2, align 8
  %12 = getelementptr inbounds %struct.free_block, ptr %11, i32 0, i32 1
  %13 = load ptr, ptr %12, align 8
  %14 = getelementptr inbounds %struct.free_block, ptr %13, i32 0, i32 2
  store ptr %10, ptr %14, align 8
  br label %15

15:                                               ; preds = %7, %1
  %16 = load ptr, ptr %2, align 8
  %17 = getelementptr inbounds %struct.free_block, ptr %16, i32 0, i32 2
  %18 = load ptr, ptr %17, align 8
  %19 = icmp ne ptr %18, null
  br i1 %19, label %20, label %28

20:                                               ; preds = %15
  %21 = load ptr, ptr %2, align 8
  %22 = getelementptr inbounds %struct.free_block, ptr %21, i32 0, i32 1
  %23 = load ptr, ptr %22, align 8
  %24 = load ptr, ptr %2, align 8
  %25 = getelementptr inbounds %struct.free_block, ptr %24, i32 0, i32 2
  %26 = load ptr, ptr %25, align 8
  %27 = getelementptr inbounds %struct.free_block, ptr %26, i32 0, i32 1
  store ptr %23, ptr %27, align 8
  br label %34

28:                                               ; preds = %15
  br label %29

29:                                               ; preds = %28
  br label %30

30:                                               ; preds = %29
  %31 = load ptr, ptr %2, align 8
  %32 = getelementptr inbounds %struct.free_block, ptr %31, i32 0, i32 1
  %33 = load ptr, ptr %32, align 8
  store ptr %33, ptr @free_blocks, align 8
  br label %34

34:                                               ; preds = %30, %20
  ret void
}

; Function Attrs: nounwind uwtable
define internal ptr @sljit_malloc_exec(i64 noundef %0) #0 {
  %2 = alloca ptr, align 8
  %3 = alloca i64, align 8
  %4 = alloca ptr, align 8
  %5 = alloca ptr, align 8
  %6 = alloca ptr, align 8
  %7 = alloca i64, align 8
  %8 = alloca ptr, align 8
  store i64 %0, ptr %3, align 8
  %9 = load i64, ptr %3, align 8
  %10 = icmp ult i64 %9, 48
  br i1 %10, label %11, label %12

11:                                               ; preds = %1
  store i64 48, ptr %3, align 8
  br label %12

12:                                               ; preds = %11, %1
  %13 = load i64, ptr %3, align 8
  %14 = add i64 %13, 16
  %15 = add i64 %14, 7
  %16 = and i64 %15, -8
  store i64 %16, ptr %3, align 8
  %17 = call i32 @pthread_mutex_lock(ptr noundef @allocator_lock) #6
  %18 = load ptr, ptr @free_blocks, align 8
  store ptr %18, ptr %6, align 8
  br label %19

19:                                               ; preds = %68, %12
  %20 = load ptr, ptr %6, align 8
  %21 = icmp ne ptr %20, null
  br i1 %21, label %22, label %72

22:                                               ; preds = %19
  %23 = load ptr, ptr %6, align 8
  %24 = getelementptr inbounds %struct.free_block, ptr %23, i32 0, i32 3
  %25 = load i64, ptr %24, align 8
  %26 = load i64, ptr %3, align 8
  %27 = icmp uge i64 %25, %26
  br i1 %27, label %28, label %68

28:                                               ; preds = %22
  %29 = load ptr, ptr %6, align 8
  %30 = getelementptr inbounds %struct.free_block, ptr %29, i32 0, i32 3
  %31 = load i64, ptr %30, align 8
  store i64 %31, ptr %7, align 8
  %32 = load i64, ptr %7, align 8
  %33 = load i64, ptr %3, align 8
  %34 = add i64 %33, 64
  %35 = icmp ugt i64 %32, %34
  br i1 %35, label %36, label %54

36:                                               ; preds = %28
  %37 = load i64, ptr %3, align 8
  %38 = load i64, ptr %7, align 8
  %39 = sub i64 %38, %37
  store i64 %39, ptr %7, align 8
  %40 = load i64, ptr %7, align 8
  %41 = load ptr, ptr %6, align 8
  %42 = getelementptr inbounds %struct.free_block, ptr %41, i32 0, i32 3
  store i64 %40, ptr %42, align 8
  %43 = load ptr, ptr %6, align 8
  %44 = load i64, ptr %7, align 8
  %45 = getelementptr inbounds i8, ptr %43, i64 %44
  store ptr %45, ptr %4, align 8
  %46 = load i64, ptr %7, align 8
  %47 = load ptr, ptr %4, align 8
  %48 = getelementptr inbounds %struct.block_header, ptr %47, i32 0, i32 1
  store i64 %46, ptr %48, align 8
  %49 = load i64, ptr %3, align 8
  %50 = load ptr, ptr %4, align 8
  %51 = load i64, ptr %3, align 8
  %52 = getelementptr inbounds i8, ptr %50, i64 %51
  %53 = getelementptr inbounds %struct.block_header, ptr %52, i32 0, i32 1
  store i64 %49, ptr %53, align 8
  br label %58

54:                                               ; preds = %28
  %55 = load ptr, ptr %6, align 8
  call void @sljit_remove_free_block(ptr noundef %55)
  %56 = load ptr, ptr %6, align 8
  store ptr %56, ptr %4, align 8
  %57 = load i64, ptr %7, align 8
  store i64 %57, ptr %3, align 8
  br label %58

58:                                               ; preds = %54, %36
  %59 = load i64, ptr %3, align 8
  %60 = load i64, ptr @allocated_size, align 8
  %61 = add i64 %60, %59
  store i64 %61, ptr @allocated_size, align 8
  %62 = load i64, ptr %3, align 8
  %63 = load ptr, ptr %4, align 8
  %64 = getelementptr inbounds %struct.block_header, ptr %63, i32 0, i32 0
  store i64 %62, ptr %64, align 8
  %65 = call i32 @pthread_mutex_unlock(ptr noundef @allocator_lock) #6
  %66 = load ptr, ptr %4, align 8
  %67 = getelementptr inbounds %struct.block_header, ptr %66, i64 1
  store ptr %67, ptr %2, align 8
  br label %139

68:                                               ; preds = %22
  %69 = load ptr, ptr %6, align 8
  %70 = getelementptr inbounds %struct.free_block, ptr %69, i32 0, i32 1
  %71 = load ptr, ptr %70, align 8
  store ptr %71, ptr %6, align 8
  br label %19

72:                                               ; preds = %19
  %73 = load i64, ptr %3, align 8
  %74 = add i64 %73, 16
  %75 = add i64 %74, 65536
  %76 = sub i64 %75, 1
  %77 = and i64 %76, -65536
  store i64 %77, ptr %7, align 8
  %78 = load i64, ptr %7, align 8
  %79 = call ptr @alloc_chunk(i64 noundef %78)
  store ptr %79, ptr %8, align 8
  %80 = load ptr, ptr %8, align 8
  %81 = icmp ne ptr %80, null
  br i1 %81, label %84, label %82

82:                                               ; preds = %72
  %83 = call i32 @pthread_mutex_unlock(ptr noundef @allocator_lock) #6
  store ptr null, ptr %2, align 8
  br label %139

84:                                               ; preds = %72
  %85 = load i64, ptr %7, align 8
  %86 = sub i64 %85, 16
  store i64 %86, ptr %7, align 8
  %87 = load i64, ptr %7, align 8
  %88 = load i64, ptr @total_size, align 8
  %89 = add i64 %88, %87
  store i64 %89, ptr @total_size, align 8
  %90 = load ptr, ptr %8, align 8
  %91 = getelementptr inbounds i8, ptr %90, i64 0
  store ptr %91, ptr %4, align 8
  %92 = load ptr, ptr %4, align 8
  %93 = getelementptr inbounds %struct.block_header, ptr %92, i32 0, i32 1
  store i64 0, ptr %93, align 8
  %94 = load i64, ptr %7, align 8
  %95 = load i64, ptr %3, align 8
  %96 = add i64 %95, 64
  %97 = icmp ugt i64 %94, %96
  br i1 %97, label %98, label %120

98:                                               ; preds = %84
  %99 = load i64, ptr %3, align 8
  %100 = load i64, ptr @allocated_size, align 8
  %101 = add i64 %100, %99
  store i64 %101, ptr @allocated_size, align 8
  %102 = load i64, ptr %3, align 8
  %103 = load ptr, ptr %4, align 8
  %104 = getelementptr inbounds %struct.block_header, ptr %103, i32 0, i32 0
  store i64 %102, ptr %104, align 8
  %105 = load i64, ptr %3, align 8
  %106 = load i64, ptr %7, align 8
  %107 = sub i64 %106, %105
  store i64 %107, ptr %7, align 8
  %108 = load ptr, ptr %4, align 8
  %109 = load i64, ptr %3, align 8
  %110 = getelementptr inbounds i8, ptr %108, i64 %109
  store ptr %110, ptr %6, align 8
  %111 = load i64, ptr %3, align 8
  %112 = load ptr, ptr %6, align 8
  %113 = getelementptr inbounds %struct.free_block, ptr %112, i32 0, i32 0
  %114 = getelementptr inbounds %struct.block_header, ptr %113, i32 0, i32 1
  store i64 %111, ptr %114, align 8
  %115 = load ptr, ptr %6, align 8
  %116 = load i64, ptr %7, align 8
  call void @sljit_insert_free_block(ptr noundef %115, i64 noundef %116)
  %117 = load ptr, ptr %6, align 8
  %118 = load i64, ptr %7, align 8
  %119 = getelementptr inbounds i8, ptr %117, i64 %118
  store ptr %119, ptr %5, align 8
  br label %130

120:                                              ; preds = %84
  %121 = load i64, ptr %7, align 8
  %122 = load i64, ptr @allocated_size, align 8
  %123 = add i64 %122, %121
  store i64 %123, ptr @allocated_size, align 8
  %124 = load i64, ptr %7, align 8
  %125 = load ptr, ptr %4, align 8
  %126 = getelementptr inbounds %struct.block_header, ptr %125, i32 0, i32 0
  store i64 %124, ptr %126, align 8
  %127 = load ptr, ptr %4, align 8
  %128 = load i64, ptr %7, align 8
  %129 = getelementptr inbounds i8, ptr %127, i64 %128
  store ptr %129, ptr %5, align 8
  br label %130

130:                                              ; preds = %120, %98
  %131 = call i32 @pthread_mutex_unlock(ptr noundef @allocator_lock) #6
  %132 = load ptr, ptr %5, align 8
  %133 = getelementptr inbounds %struct.block_header, ptr %132, i32 0, i32 0
  store i64 1, ptr %133, align 8
  %134 = load i64, ptr %7, align 8
  %135 = load ptr, ptr %5, align 8
  %136 = getelementptr inbounds %struct.block_header, ptr %135, i32 0, i32 1
  store i64 %134, ptr %136, align 8
  %137 = load ptr, ptr %4, align 8
  %138 = getelementptr inbounds %struct.block_header, ptr %137, i64 1
  store ptr %138, ptr %2, align 8
  br label %139

139:                                              ; preds = %130, %82, %58
  %140 = load ptr, ptr %2, align 8
  ret ptr %140
}