; Function Attrs: nounwind uwtable
define internal fastcc ptr @sljit_malloc_exec(i64 noundef %0) unnamed_addr #0 {
  %spec.store.select = tail call i64 @llvm.umax.i64(i64 %0, i64 48)
  %2 = add i64 %spec.store.select, 23
  %3 = and i64 %2, -8
  %4 = tail call i32 @pthread_mutex_lock(ptr noundef nonnull @allocator_lock) #18
  %.05973 = load ptr, ptr @free_blocks, align 8
  %.not74 = icmp eq ptr %.05973, null
  br i1 %.not74, label %._crit_edge, label %.lr.ph

.lr.ph:                                           ; preds = %1, %29
  %.05975 = phi ptr [ %.059, %29 ], [ %.05973, %1 ]
  %5 = getelementptr inbounds i8, ptr %.05975, i64 32
  %6 = load i64, ptr %5, align 8
  %.not68 = icmp ult i64 %6, %3
  br i1 %.not68, label %29, label %7

7:                                                ; preds = %.lr.ph
  %8 = add i64 %3, 64
  %9 = icmp ugt i64 %6, %8
  br i1 %9, label %10, label %17

10:                                               ; preds = %7
  %11 = getelementptr inbounds i8, ptr %.05975, i64 32
  %12 = sub i64 %6, %3
  store i64 %12, ptr %11, align 8
  %13 = getelementptr inbounds i8, ptr %.05975, i64 %12
  %14 = getelementptr inbounds i8, ptr %13, i64 8
  store i64 %12, ptr %14, align 8
  %15 = getelementptr inbounds i8, ptr %.05975, i64 %6
  %16 = getelementptr inbounds i8, ptr %15, i64 8
  store i64 %3, ptr %16, align 8
  br label %24

17:                                               ; preds = %7
  %18 = getelementptr inbounds i8, ptr %.05975, i64 16
  %19 = load ptr, ptr %18, align 8
  %.not.i = icmp eq ptr %19, null
  %.phi.trans.insert.i = getelementptr inbounds i8, ptr %.05975, i64 24
  %.pre.i = load ptr, ptr %.phi.trans.insert.i, align 8
  br i1 %.not.i, label %sljit_remove_free_block.exit, label %20

20:                                               ; preds = %17
  %21 = getelementptr inbounds i8, ptr %19, i64 24
  store ptr %.pre.i, ptr %21, align 8
  %.pre = load ptr, ptr %18, align 8
  br label %sljit_remove_free_block.exit

sljit_remove_free_block.exit:                     ; preds = %17, %20
  %22 = phi ptr [ null, %17 ], [ %.pre, %20 ]
  %.not8.i = icmp eq ptr %.pre.i, null
  %23 = getelementptr inbounds i8, ptr %.pre.i, i64 16
  %free_blocks.sink.i = select i1 %.not8.i, ptr @free_blocks, ptr %23
  store ptr %22, ptr %free_blocks.sink.i, align 8
  br label %24

24:                                               ; preds = %sljit_remove_free_block.exit, %10
  %.062 = phi i64 [ %3, %10 ], [ %6, %sljit_remove_free_block.exit ]
  %.061 = phi ptr [ %13, %10 ], [ %.05975, %sljit_remove_free_block.exit ]
  %25 = load i64, ptr @allocated_size, align 8
  %26 = add i64 %25, %.062
  store i64 %26, ptr @allocated_size, align 8
  store i64 %.062, ptr %.061, align 8
  %27 = tail call i32 @pthread_mutex_unlock(ptr noundef nonnull @allocator_lock) #18
  %28 = getelementptr inbounds i8, ptr %.061, i64 16
  br label %61

29:                                               ; preds = %.lr.ph
  %30 = getelementptr inbounds i8, ptr %.05975, i64 16
  %.059 = load ptr, ptr %30, align 8
  %.not = icmp eq ptr %.059, null
  br i1 %.not, label %._crit_edge, label %.lr.ph

._crit_edge:                                      ; preds = %29, %1
  %31 = add i64 %3, 65551
  %32 = and i64 %31, -65536
  %33 = tail call ptr @mmap(ptr noundef null, i64 noundef %32, i32 noundef 7, i32 noundef 34, i32 noundef -1, i64 noundef 0) #18
  %magicptr = ptrtoint ptr %33 to i64
  switch i64 %magicptr, label %36 [
    i64 -1, label %34
    i64 0, label %34
  ]

34:                                               ; preds = %._crit_edge, %._crit_edge
  %35 = tail call i32 @pthread_mutex_unlock(ptr noundef nonnull @allocator_lock) #18
  br label %61

36:                                               ; preds = %._crit_edge
  %37 = add i64 %32, -16
  %38 = load i64, ptr @total_size, align 8
  %39 = add i64 %38, %37
  store i64 %39, ptr @total_size, align 8
  %40 = getelementptr inbounds i8, ptr %33, i64 8
  store i64 0, ptr %40, align 8
  %41 = add i64 %3, 64
  %42 = icmp ugt i64 %37, %41
  %43 = load i64, ptr @allocated_size, align 8
  br i1 %42, label %44, label %55

44:                                               ; preds = %36
  %45 = add i64 %43, %3
  store i64 %45, ptr @allocated_size, align 8
  store i64 %3, ptr %33, align 8
  %46 = sub i64 %37, %3
  %47 = getelementptr inbounds i8, ptr %33, i64 %3
  %48 = getelementptr inbounds i8, ptr %47, i64 8
  store i64 %3, ptr %48, align 8
  store i64 0, ptr %47, align 8
  %49 = getelementptr inbounds i8, ptr %47, i64 32
  store i64 %46, ptr %49, align 8
  %50 = load ptr, ptr @free_blocks, align 8
  %51 = getelementptr inbounds i8, ptr %47, i64 16
  store ptr %50, ptr %51, align 8
  %52 = getelementptr inbounds i8, ptr %47, i64 24
  store ptr null, ptr %52, align 8
  %.not.i69 = icmp eq ptr %50, null
  br i1 %.not.i69, label %sljit_insert_free_block.exit, label %53

53:                                               ; preds = %44
  %54 = getelementptr inbounds i8, ptr %50, i64 24
  store ptr %47, ptr %54, align 8
  br label %sljit_insert_free_block.exit

sljit_insert_free_block.exit:                     ; preds = %44, %53
  store ptr %47, ptr @free_blocks, align 8
  br label %57

55:                                               ; preds = %36
  %56 = add i64 %43, %37
  store i64 %56, ptr @allocated_size, align 8
  store i64 %37, ptr %33, align 8
  br label %57

57:                                               ; preds = %55, %sljit_insert_free_block.exit
  %.058 = phi i64 [ %46, %sljit_insert_free_block.exit ], [ %37, %55 ]
  %.060 = getelementptr inbounds i8, ptr %33, i64 %37
  %58 = tail call i32 @pthread_mutex_unlock(ptr noundef nonnull @allocator_lock) #18
  store i64 1, ptr %.060, align 8
  %59 = getelementptr inbounds i8, ptr %.060, i64 8
  store i64 %.058, ptr %59, align 8
  %60 = getelementptr inbounds i8, ptr %33, i64 16
  br label %61

61:                                               ; preds = %57, %34, %24
  %.0 = phi ptr [ %28, %24 ], [ %60, %57 ], [ null, %34 ]
  ret ptr %.0
}